target datalayout = "e-m:e-p270:32:32-p271:32:32-p272:64:64-i64:64-i128:128-f80:128-n8:16:32:64-S128"
target triple = "x86_64-pc-linux-gnu"

%class.LogTagSet = type { ptr, i64, [5 x i32], [4 x i8], %class.LogOutputList, %class.LogDecorators, ptr }
%class.LogOutputList = type <{ [6 x ptr], i32, [4 x i8] }>
%class.LogDecorators = type { i32 }
%class.GCLogPreciousHandle = type { %class.LogTargetHandle }
%class.LogTargetHandle = type { i32, ptr }
%class.LogTargetImpl = type { i8 }

@G1ConcRefinementThreads = external global i32, align 4
@.str.4 = private unnamed_addr constant [34 x i8] c"Concurrent Refinement Workers: %u\00", align 1
@_ZN16LogTagSetMappingILN6LogTag4typeE49ELS1_58ELS1_0ELS1_0ELS1_0ELS1_0EE7_tagsetE = linkonce_odr hidden global %class.LogTagSet zeroinitializer, comdat, align 8

; Function Attrs: mustprogress nounwind uwtable
define linkonce_odr hidden noundef nonnull align 8 dereferenceable(112) ptr @_ZN16LogTagSetMappingILN6LogTag4typeE49ELS1_58ELS1_0ELS1_0ELS1_0ELS1_0EE6tagsetEv() #1 comdat align 2 {
  ret ptr @_ZN16LogTagSetMappingILN6LogTag4typeE49ELS1_58ELS1_0ELS1_0ELS1_0ELS1_0EE7_tagsetE
}

; Function Attrs: mustprogress nounwind uwtable
define linkonce_odr hidden void @_ZN15LogTargetHandleC2ILN8LogLevel4typeE3ELN6LogTag4typeE49ELS4_58ELS4_0ELS4_0ELS4_0ELS4_0EEERK13LogTargetImplIXT_EXT0_EXT1_EXT2_EXT3_EXT4_EXT5_EE(ptr noundef nonnull align 8 dereferenceable(16) %0, ptr noundef nonnull align 1 dereferenceable(1) %1) unnamed_addr #1 comdat align 2 {
  %3 = alloca ptr, align 8
  %4 = alloca ptr, align 8
  store ptr %0, ptr %3, align 8
  store ptr %1, ptr %4, align 8
  %5 = load ptr, ptr %3, align 8
  %6 = getelementptr inbounds %class.LogTargetHandle, ptr %5, i32 0, i32 0
  store i32 3, ptr %6, align 8
  %7 = getelementptr inbounds %class.LogTargetHandle, ptr %5, i32 0, i32 1
  %8 = call noundef nonnull align 8 dereferenceable(112) ptr @_ZN16LogTagSetMappingILN6LogTag4typeE49ELS1_58ELS1_0ELS1_0ELS1_0ELS1_0EE6tagsetEv()
  store ptr %8, ptr %7, align 8
  ret void
}

; Function Attrs: mustprogress nounwind uwtable
define linkonce_odr hidden void @_ZN13LogTargetImplILN8LogLevel4typeE3ELN6LogTag4typeE49ELS3_58ELS3_0ELS3_0ELS3_0ELS3_0EEC2Ev(ptr noundef nonnull align 1 dereferenceable(1) %0) unnamed_addr #1 comdat align 2 {
  %2 = alloca ptr, align 8
  store ptr %0, ptr %2, align 8
  ret void
}

; Function Attrs: mustprogress nounwind uwtable
define linkonce_odr hidden void @_ZN19GCLogPreciousHandleC2E15LogTargetHandle(ptr noundef nonnull align 8 dereferenceable(16) %0, i32 %1, ptr %2) unnamed_addr #1 comdat align 2 {
  %4 = alloca %class.LogTargetHandle, align 8
  %5 = alloca ptr, align 8
  %6 = getelementptr inbounds { i32, ptr }, ptr %4, i32 0, i32 0
  store i32 %1, ptr %6, align 8
  %7 = getelementptr inbounds { i32, ptr }, ptr %4, i32 0, i32 1
  store ptr %2, ptr %7, align 8
  store ptr %0, ptr %5, align 8
  %8 = load ptr, ptr %5, align 8
  %9 = getelementptr inbounds %class.GCLogPreciousHandle, ptr %8, i32 0, i32 0
  call void @llvm.memcpy.p0.p0.i64(ptr align 8 %9, ptr align 8 %4, i64 16, i1 false)
  ret void
}

; Function Attrs: mustprogress nounwind uwtable
define linkonce_odr hidden { i32, ptr } @_ZN15LogTargetHandle6createILN8LogLevel4typeE3ELN6LogTag4typeE49ELS4_58ELS4_0ELS4_0ELS4_0ELS4_0EEES_v() #1 comdat align 2 {
  %1 = alloca %class.LogTargetHandle, align 8
  %2 = alloca %class.LogTargetImpl, align 1
  call void @_ZN13LogTargetImplILN8LogLevel4typeE3ELN6LogTag4typeE49ELS3_58ELS3_0ELS3_0ELS3_0ELS3_0EEC2Ev(ptr noundef nonnull align 1 dereferenceable(1) %2)
  call void @_ZN15LogTargetHandleC2ILN8LogLevel4typeE3ELN6LogTag4typeE49ELS4_58ELS4_0ELS4_0ELS4_0ELS4_0EEERK13LogTargetImplIXT_EXT0_EXT1_EXT2_EXT3_EXT4_EXT5_EE(ptr noundef nonnull align 8 dereferenceable(16) %1, ptr noundef nonnull align 1 dereferenceable(1) %2)
  %3 = load { i32, ptr }, ptr %1, align 8
  ret { i32, ptr } %3
}

; Function Attrs: mustprogress nounwind uwtable
define hidden void @_ZN12G1InitLogger13print_workersEv(ptr noundef nonnull align 8 dereferenceable(8) %0) unnamed_addr #1 align 2 {
  %2 = alloca ptr, align 8
  %3 = alloca %class.GCLogPreciousHandle, align 8
  %4 = alloca %class.LogTargetHandle, align 8
  store ptr %0, ptr %2, align 8
  %5 = load ptr, ptr %2, align 8
  call void @_ZN12GCInitLogger13print_workersEv(ptr noundef nonnull align 8 dereferenceable(8) %5)
  %6 = load i32, ptr @G1ConcRefinementThreads, align 4
  %7 = icmp ugt i32 %6, 0
  br i1 %7, label %8, label %19

8:                                                ; preds = %1
  %9 = call { i32, ptr } @_ZN15LogTargetHandle6createILN8LogLevel4typeE3ELN6LogTag4typeE49ELS4_58ELS4_0ELS4_0ELS4_0ELS4_0EEES_v()
  %10 = getelementptr inbounds { i32, ptr }, ptr %4, i32 0, i32 0
  %11 = extractvalue { i32, ptr } %9, 0
  store i32 %11, ptr %10, align 8
  %12 = getelementptr inbounds { i32, ptr }, ptr %4, i32 0, i32 1
  %13 = extractvalue { i32, ptr } %9, 1
  store ptr %13, ptr %12, align 8
  %14 = getelementptr inbounds { i32, ptr }, ptr %4, i32 0, i32 0
  %15 = load i32, ptr %14, align 8
  %16 = getelementptr inbounds { i32, ptr }, ptr %4, i32 0, i32 1
  %17 = load ptr, ptr %16, align 8
  call void @_ZN19GCLogPreciousHandleC2E15LogTargetHandle(ptr noundef nonnull align 8 dereferenceable(16) %3, i32 %15, ptr %17)
  %18 = load i32, ptr @G1ConcRefinementThreads, align 4
  call void (ptr, ptr, ...) @_ZN19GCLogPreciousHandle5writeEPKcz(ptr noundef nonnull align 8 dereferenceable(16) %3, ptr noundef @.str.4, i32 noundef %18)
  br label %19

19:                                               ; preds = %8, %1
  ret void
}