; Function Attrs: mustprogress nounwind uwtable
define hidden void @_ZN12G1InitLogger13print_workersEv(ptr noundef nonnull align 8 dereferenceable(8) %0) unnamed_addr #0 align 2 {
  %2 = alloca %class.GCLogPreciousHandle, align 8
  tail call void @_ZN12GCInitLogger13print_workersEv(ptr noundef nonnull align 8 dereferenceable(8) %0) #4
  %3 = load i32, ptr @G1ConcRefinementThreads, align 4
  %.not = icmp eq i32 %3, 0
  br i1 %.not, label %5, label %4

4:                                                ; preds = %1
  store i32 3, ptr %2, align 8
  %.sroa.21.0..sroa_idx.i = getelementptr inbounds i8, ptr %2, i64 8
  store ptr @_ZN16LogTagSetMappingILN6LogTag4typeE49ELS1_58ELS1_0ELS1_0ELS1_0ELS1_0EE7_tagsetE, ptr %.sroa.21.0..sroa_idx.i, align 8
  call void (ptr, ptr, ...) @_ZN19GCLogPreciousHandle5writeEPKcz(ptr noundef nonnull align 8 dereferenceable(16) %2, ptr noundef nonnull @.str.4, i32 noundef %3)
  br label %5

5:                                                ; preds = %4, %1
  ret void
}